

Microchip Technology PIC LITE Macro Assembler V1.44 build -154322312 
                                                                                               Thu Nov 02 15:53:52 2017

Microchip Technology Omniscient Code Generator v1.44 (Free mode) build 201709140600
     1                           	processor	16F1503
     2                           	opt	pw 120
     3                           	opt	lm
     4                           	psect	nvCOMMON,global,class=COMMON,space=1,delta=1
     5                           	psect	cinit,global,class=CODE,merge=1,delta=2
     6                           	psect	cstackCOMMON,global,class=COMMON,space=1,delta=1
     7                           	psect	maintext,global,class=CODE,merge=1,split=1,delta=2
     8                           	psect	text1,local,class=CODE,merge=1,delta=2
     9                           	psect	text2,local,class=CODE,merge=1,delta=2
    10                           	psect	text3,local,class=CODE,merge=1,delta=2
    11                           	psect	text4,local,class=CODE,merge=1,delta=2
    12                           	psect	text5,local,class=CODE,merge=1,delta=2
    13                           	psect	text6,local,class=CODE,merge=1,delta=2
    14                           	psect	text7,local,class=CODE,merge=1,delta=2
    15                           	psect	text8,local,class=CODE,merge=1,delta=2
    16                           	psect	text9,local,class=CODE,merge=1,delta=2
    17                           	psect	intentry,global,class=CODE,delta=2
    18                           	dabs	1,0x7E,2
    19  0000                     
    20                           ; Version 1.44
    21                           ; Generated 14/09/2017 GMT
    22                           ; 
    23                           ; Copyright © 2017, Microchip Technology Inc. and its subsidiaries ("Microchip")
    24                           ; All rights reserved.
    25                           ; 
    26                           ; This software is developed by Microchip Technology Inc. and its subsidiaries ("Microch
      +                          ip").
    27                           ; 
    28                           ; Redistribution and use in source and binary forms, with or without modification, are
    29                           ; permitted provided that the following conditions are met:
    30                           ; 
    31                           ;     1. Redistributions of source code must retain the above copyright notice, this lis
      +                          t of
    32                           ;        conditions and the following disclaimer.
    33                           ; 
    34                           ;     2. Redistributions in binary form must reproduce the above copyright notice, this 
      +                          list
    35                           ;        of conditions and the following disclaimer in the documentation and/or other
    36                           ;        materials provided with the distribution.
    37                           ; 
    38                           ;     3. Microchip's name may not be used to endorse or promote products derived from th
      +                          is
    39                           ;        software without specific prior written permission.
    40                           ; 
    41                           ; THIS SOFTWARE IS PROVIDED BY MICROCHIP "AS IS" AND ANY EXPRESS OR IMPLIED WARRANTIES,
    42                           ; INCLUDING, BUT NOT LIMITED TO, THE IMPLIED WARRANTIES OF MERCHANTABILITY AND FITNESS F
      +                          OR
    43                           ; PURPOSE ARE DISCLAIMED.  IN NO EVENT SHALL MICROCHIP BE LIABLE FOR ANY DIRECT, INDIREC
      +                          T,
    44                           ; INCIDENTAL, SPECIAL, EXEMPLARY, OR CONSEQUENTIAL DAMAGES (INCLUDING BUT NOT LIMITED TO
    45                           ; PROCUREMENT OF SUBSTITUTE GOODS OR SERVICES; LOSS OF USE, DATA OR PROFITS; OR BUSINESS
    46                           ; INTERRUPTION) HOWSOEVER CAUSED AND ON ANY THEORY OF LIABILITY, WHETHER IN CONTRACT, ST
      +                          RICT
    47                           ; LIABILITY, OR TORT (INCLUDING NEGLIGENCE OR OTHERWISE) ARISING IN ANY WAY OUT OF THE U
      +                          SE OF
    48                           ; THIS SOFTWARE, EVEN IF ADVISED OF THE POSSIBILITY OF SUCH DAMAGE.
    49                           ; 
    50                           ; 
    51                           ; Code-generator required, PIC16F1503 Definitions
    52                           ; 
    53                           ; SFR Addresses
    54  0000                     	;# 
    55  0001                     	;# 
    56  0002                     	;# 
    57  0003                     	;# 
    58  0004                     	;# 
    59  0005                     	;# 
    60  0006                     	;# 
    61  0007                     	;# 
    62  0008                     	;# 
    63  0009                     	;# 
    64  000A                     	;# 
    65  000B                     	;# 
    66  000C                     	;# 
    67  000E                     	;# 
    68  0011                     	;# 
    69  0012                     	;# 
    70  0013                     	;# 
    71  0015                     	;# 
    72  0016                     	;# 
    73  0016                     	;# 
    74  0017                     	;# 
    75  0018                     	;# 
    76  0019                     	;# 
    77  001A                     	;# 
    78  001B                     	;# 
    79  001C                     	;# 
    80  008C                     	;# 
    81  008E                     	;# 
    82  0091                     	;# 
    83  0092                     	;# 
    84  0093                     	;# 
    85  0095                     	;# 
    86  0096                     	;# 
    87  0097                     	;# 
    88  0099                     	;# 
    89  009A                     	;# 
    90  009B                     	;# 
    91  009B                     	;# 
    92  009C                     	;# 
    93  009D                     	;# 
    94  009E                     	;# 
    95  009F                     	;# 
    96  010C                     	;# 
    97  010E                     	;# 
    98  0111                     	;# 
    99  0112                     	;# 
   100  0113                     	;# 
   101  0114                     	;# 
   102  0115                     	;# 
   103  0116                     	;# 
   104  0117                     	;# 
   105  0118                     	;# 
   106  0119                     	;# 
   107  011D                     	;# 
   108  018C                     	;# 
   109  018E                     	;# 
   110  0191                     	;# 
   111  0191                     	;# 
   112  0192                     	;# 
   113  0193                     	;# 
   114  0193                     	;# 
   115  0194                     	;# 
   116  0195                     	;# 
   117  0196                     	;# 
   118  0197                     	;# 
   119  020C                     	;# 
   120  0211                     	;# 
   121  0211                     	;# 
   122  0212                     	;# 
   123  0212                     	;# 
   124  0213                     	;# 
   125  0213                     	;# 
   126  0214                     	;# 
   127  0214                     	;# 
   128  0215                     	;# 
   129  0215                     	;# 
   130  0215                     	;# 
   131  0216                     	;# 
   132  0216                     	;# 
   133  0217                     	;# 
   134  0217                     	;# 
   135  0391                     	;# 
   136  0392                     	;# 
   137  0393                     	;# 
   138  0498                     	;# 
   139  0498                     	;# 
   140  0499                     	;# 
   141  049A                     	;# 
   142  049B                     	;# 
   143  049B                     	;# 
   144  049C                     	;# 
   145  049D                     	;# 
   146  049E                     	;# 
   147  049F                     	;# 
   148  0611                     	;# 
   149  0612                     	;# 
   150  0613                     	;# 
   151  0613                     	;# 
   152  0614                     	;# 
   153  0615                     	;# 
   154  0616                     	;# 
   155  0616                     	;# 
   156  0617                     	;# 
   157  0618                     	;# 
   158  0619                     	;# 
   159  0619                     	;# 
   160  061A                     	;# 
   161  061B                     	;# 
   162  061C                     	;# 
   163  061C                     	;# 
   164  0691                     	;# 
   165  0692                     	;# 
   166  0693                     	;# 
   167  0694                     	;# 
   168  0695                     	;# 
   169  0F0F                     	;# 
   170  0F10                     	;# 
   171  0F11                     	;# 
   172  0F12                     	;# 
   173  0F13                     	;# 
   174  0F14                     	;# 
   175  0F15                     	;# 
   176  0F16                     	;# 
   177  0F17                     	;# 
   178  0F18                     	;# 
   179  0F19                     	;# 
   180  0F1A                     	;# 
   181  0F1B                     	;# 
   182  0F1C                     	;# 
   183  0F1D                     	;# 
   184  0F1E                     	;# 
   185  0F1F                     	;# 
   186  0FE3                     	;# 
   187  0FE4                     	;# 
   188  0FE5                     	;# 
   189  0FE6                     	;# 
   190  0FE7                     	;# 
   191  0FE8                     	;# 
   192  0FE9                     	;# 
   193  0FEA                     	;# 
   194  0FEB                     	;# 
   195  0FED                     	;# 
   196  0FEE                     	;# 
   197  0FEF                     	;# 
   198  0000                     	;# 
   199  0001                     	;# 
   200  0002                     	;# 
   201  0003                     	;# 
   202  0004                     	;# 
   203  0005                     	;# 
   204  0006                     	;# 
   205  0007                     	;# 
   206  0008                     	;# 
   207  0009                     	;# 
   208  000A                     	;# 
   209  000B                     	;# 
   210  000C                     	;# 
   211  000E                     	;# 
   212  0011                     	;# 
   213  0012                     	;# 
   214  0013                     	;# 
   215  0015                     	;# 
   216  0016                     	;# 
   217  0016                     	;# 
   218  0017                     	;# 
   219  0018                     	;# 
   220  0019                     	;# 
   221  001A                     	;# 
   222  001B                     	;# 
   223  001C                     	;# 
   224  008C                     	;# 
   225  008E                     	;# 
   226  0091                     	;# 
   227  0092                     	;# 
   228  0093                     	;# 
   229  0095                     	;# 
   230  0096                     	;# 
   231  0097                     	;# 
   232  0099                     	;# 
   233  009A                     	;# 
   234  009B                     	;# 
   235  009B                     	;# 
   236  009C                     	;# 
   237  009D                     	;# 
   238  009E                     	;# 
   239  009F                     	;# 
   240  010C                     	;# 
   241  010E                     	;# 
   242  0111                     	;# 
   243  0112                     	;# 
   244  0113                     	;# 
   245  0114                     	;# 
   246  0115                     	;# 
   247  0116                     	;# 
   248  0117                     	;# 
   249  0118                     	;# 
   250  0119                     	;# 
   251  011D                     	;# 
   252  018C                     	;# 
   253  018E                     	;# 
   254  0191                     	;# 
   255  0191                     	;# 
   256  0192                     	;# 
   257  0193                     	;# 
   258  0193                     	;# 
   259  0194                     	;# 
   260  0195                     	;# 
   261  0196                     	;# 
   262  0197                     	;# 
   263  020C                     	;# 
   264  0211                     	;# 
   265  0211                     	;# 
   266  0212                     	;# 
   267  0212                     	;# 
   268  0213                     	;# 
   269  0213                     	;# 
   270  0214                     	;# 
   271  0214                     	;# 
   272  0215                     	;# 
   273  0215                     	;# 
   274  0215                     	;# 
   275  0216                     	;# 
   276  0216                     	;# 
   277  0217                     	;# 
   278  0217                     	;# 
   279  0391                     	;# 
   280  0392                     	;# 
   281  0393                     	;# 
   282  0498                     	;# 
   283  0498                     	;# 
   284  0499                     	;# 
   285  049A                     	;# 
   286  049B                     	;# 
   287  049B                     	;# 
   288  049C                     	;# 
   289  049D                     	;# 
   290  049E                     	;# 
   291  049F                     	;# 
   292  0611                     	;# 
   293  0612                     	;# 
   294  0613                     	;# 
   295  0613                     	;# 
   296  0614                     	;# 
   297  0615                     	;# 
   298  0616                     	;# 
   299  0616                     	;# 
   300  0617                     	;# 
   301  0618                     	;# 
   302  0619                     	;# 
   303  0619                     	;# 
   304  061A                     	;# 
   305  061B                     	;# 
   306  061C                     	;# 
   307  061C                     	;# 
   308  0691                     	;# 
   309  0692                     	;# 
   310  0693                     	;# 
   311  0694                     	;# 
   312  0695                     	;# 
   313  0F0F                     	;# 
   314  0F10                     	;# 
   315  0F11                     	;# 
   316  0F12                     	;# 
   317  0F13                     	;# 
   318  0F14                     	;# 
   319  0F15                     	;# 
   320  0F16                     	;# 
   321  0F17                     	;# 
   322  0F18                     	;# 
   323  0F19                     	;# 
   324  0F1A                     	;# 
   325  0F1B                     	;# 
   326  0F1C                     	;# 
   327  0F1D                     	;# 
   328  0F1E                     	;# 
   329  0F1F                     	;# 
   330  0FE3                     	;# 
   331  0FE4                     	;# 
   332  0FE5                     	;# 
   333  0FE6                     	;# 
   334  0FE7                     	;# 
   335  0FE8                     	;# 
   336  0FE9                     	;# 
   337  0FEA                     	;# 
   338  0FEB                     	;# 
   339  0FED                     	;# 
   340  0FEE                     	;# 
   341  0FEF                     	;# 
   342  0000                     	;# 
   343  0001                     	;# 
   344  0002                     	;# 
   345  0003                     	;# 
   346  0004                     	;# 
   347  0005                     	;# 
   348  0006                     	;# 
   349  0007                     	;# 
   350  0008                     	;# 
   351  0009                     	;# 
   352  000A                     	;# 
   353  000B                     	;# 
   354  000C                     	;# 
   355  000E                     	;# 
   356  0011                     	;# 
   357  0012                     	;# 
   358  0013                     	;# 
   359  0015                     	;# 
   360  0016                     	;# 
   361  0016                     	;# 
   362  0017                     	;# 
   363  0018                     	;# 
   364  0019                     	;# 
   365  001A                     	;# 
   366  001B                     	;# 
   367  001C                     	;# 
   368  008C                     	;# 
   369  008E                     	;# 
   370  0091                     	;# 
   371  0092                     	;# 
   372  0093                     	;# 
   373  0095                     	;# 
   374  0096                     	;# 
   375  0097                     	;# 
   376  0099                     	;# 
   377  009A                     	;# 
   378  009B                     	;# 
   379  009B                     	;# 
   380  009C                     	;# 
   381  009D                     	;# 
   382  009E                     	;# 
   383  009F                     	;# 
   384  010C                     	;# 
   385  010E                     	;# 
   386  0111                     	;# 
   387  0112                     	;# 
   388  0113                     	;# 
   389  0114                     	;# 
   390  0115                     	;# 
   391  0116                     	;# 
   392  0117                     	;# 
   393  0118                     	;# 
   394  0119                     	;# 
   395  011D                     	;# 
   396  018C                     	;# 
   397  018E                     	;# 
   398  0191                     	;# 
   399  0191                     	;# 
   400  0192                     	;# 
   401  0193                     	;# 
   402  0193                     	;# 
   403  0194                     	;# 
   404  0195                     	;# 
   405  0196                     	;# 
   406  0197                     	;# 
   407  020C                     	;# 
   408  0211                     	;# 
   409  0211                     	;# 
   410  0212                     	;# 
   411  0212                     	;# 
   412  0213                     	;# 
   413  0213                     	;# 
   414  0214                     	;# 
   415  0214                     	;# 
   416  0215                     	;# 
   417  0215                     	;# 
   418  0215                     	;# 
   419  0216                     	;# 
   420  0216                     	;# 
   421  0217                     	;# 
   422  0217                     	;# 
   423  0391                     	;# 
   424  0392                     	;# 
   425  0393                     	;# 
   426  0498                     	;# 
   427  0498                     	;# 
   428  0499                     	;# 
   429  049A                     	;# 
   430  049B                     	;# 
   431  049B                     	;# 
   432  049C                     	;# 
   433  049D                     	;# 
   434  049E                     	;# 
   435  049F                     	;# 
   436  0611                     	;# 
   437  0612                     	;# 
   438  0613                     	;# 
   439  0613                     	;# 
   440  0614                     	;# 
   441  0615                     	;# 
   442  0616                     	;# 
   443  0616                     	;# 
   444  0617                     	;# 
   445  0618                     	;# 
   446  0619                     	;# 
   447  0619                     	;# 
   448  061A                     	;# 
   449  061B                     	;# 
   450  061C                     	;# 
   451  061C                     	;# 
   452  0691                     	;# 
   453  0692                     	;# 
   454  0693                     	;# 
   455  0694                     	;# 
   456  0695                     	;# 
   457  0F0F                     	;# 
   458  0F10                     	;# 
   459  0F11                     	;# 
   460  0F12                     	;# 
   461  0F13                     	;# 
   462  0F14                     	;# 
   463  0F15                     	;# 
   464  0F16                     	;# 
   465  0F17                     	;# 
   466  0F18                     	;# 
   467  0F19                     	;# 
   468  0F1A                     	;# 
   469  0F1B                     	;# 
   470  0F1C                     	;# 
   471  0F1D                     	;# 
   472  0F1E                     	;# 
   473  0F1F                     	;# 
   474  0FE3                     	;# 
   475  0FE4                     	;# 
   476  0FE5                     	;# 
   477  0FE6                     	;# 
   478  0FE7                     	;# 
   479  0FE8                     	;# 
   480  0FE9                     	;# 
   481  0FEA                     	;# 
   482  0FEB                     	;# 
   483  0FED                     	;# 
   484  0FEE                     	;# 
   485  0FEF                     	;# 
   486  0000                     	;# 
   487  0001                     	;# 
   488  0002                     	;# 
   489  0003                     	;# 
   490  0004                     	;# 
   491  0005                     	;# 
   492  0006                     	;# 
   493  0007                     	;# 
   494  0008                     	;# 
   495  0009                     	;# 
   496  000A                     	;# 
   497  000B                     	;# 
   498  000C                     	;# 
   499  000E                     	;# 
   500  0011                     	;# 
   501  0012                     	;# 
   502  0013                     	;# 
   503  0015                     	;# 
   504  0016                     	;# 
   505  0016                     	;# 
   506  0017                     	;# 
   507  0018                     	;# 
   508  0019                     	;# 
   509  001A                     	;# 
   510  001B                     	;# 
   511  001C                     	;# 
   512  008C                     	;# 
   513  008E                     	;# 
   514  0091                     	;# 
   515  0092                     	;# 
   516  0093                     	;# 
   517  0095                     	;# 
   518  0096                     	;# 
   519  0097                     	;# 
   520  0099                     	;# 
   521  009A                     	;# 
   522  009B                     	;# 
   523  009B                     	;# 
   524  009C                     	;# 
   525  009D                     	;# 
   526  009E                     	;# 
   527  009F                     	;# 
   528  010C                     	;# 
   529  010E                     	;# 
   530  0111                     	;# 
   531  0112                     	;# 
   532  0113                     	;# 
   533  0114                     	;# 
   534  0115                     	;# 
   535  0116                     	;# 
   536  0117                     	;# 
   537  0118                     	;# 
   538  0119                     	;# 
   539  011D                     	;# 
   540  018C                     	;# 
   541  018E                     	;# 
   542  0191                     	;# 
   543  0191                     	;# 
   544  0192                     	;# 
   545  0193                     	;# 
   546  0193                     	;# 
   547  0194                     	;# 
   548  0195                     	;# 
   549  0196                     	;# 
   550  0197                     	;# 
   551  020C                     	;# 
   552  0211                     	;# 
   553  0211                     	;# 
   554  0212                     	;# 
   555  0212                     	;# 
   556  0213                     	;# 
   557  0213                     	;# 
   558  0214                     	;# 
   559  0214                     	;# 
   560  0215                     	;# 
   561  0215                     	;# 
   562  0215                     	;# 
   563  0216                     	;# 
   564  0216                     	;# 
   565  0217                     	;# 
   566  0217                     	;# 
   567  0391                     	;# 
   568  0392                     	;# 
   569  0393                     	;# 
   570  0498                     	;# 
   571  0498                     	;# 
   572  0499                     	;# 
   573  049A                     	;# 
   574  049B                     	;# 
   575  049B                     	;# 
   576  049C                     	;# 
   577  049D                     	;# 
   578  049E                     	;# 
   579  049F                     	;# 
   580  0611                     	;# 
   581  0612                     	;# 
   582  0613                     	;# 
   583  0613                     	;# 
   584  0614                     	;# 
   585  0615                     	;# 
   586  0616                     	;# 
   587  0616                     	;# 
   588  0617                     	;# 
   589  0618                     	;# 
   590  0619                     	;# 
   591  0619                     	;# 
   592  061A                     	;# 
   593  061B                     	;# 
   594  061C                     	;# 
   595  061C                     	;# 
   596  0691                     	;# 
   597  0692                     	;# 
   598  0693                     	;# 
   599  0694                     	;# 
   600  0695                     	;# 
   601  0F0F                     	;# 
   602  0F10                     	;# 
   603  0F11                     	;# 
   604  0F12                     	;# 
   605  0F13                     	;# 
   606  0F14                     	;# 
   607  0F15                     	;# 
   608  0F16                     	;# 
   609  0F17                     	;# 
   610  0F18                     	;# 
   611  0F19                     	;# 
   612  0F1A                     	;# 
   613  0F1B                     	;# 
   614  0F1C                     	;# 
   615  0F1D                     	;# 
   616  0F1E                     	;# 
   617  0F1F                     	;# 
   618  0FE3                     	;# 
   619  0FE4                     	;# 
   620  0FE5                     	;# 
   621  0FE6                     	;# 
   622  0FE7                     	;# 
   623  0FE8                     	;# 
   624  0FE9                     	;# 
   625  0FEA                     	;# 
   626  0FEB                     	;# 
   627  0FED                     	;# 
   628  0FEE                     	;# 
   629  0FEF                     	;# 
   630  0000                     	;# 
   631  0001                     	;# 
   632  0002                     	;# 
   633  0003                     	;# 
   634  0004                     	;# 
   635  0005                     	;# 
   636  0006                     	;# 
   637  0007                     	;# 
   638  0008                     	;# 
   639  0009                     	;# 
   640  000A                     	;# 
   641  000B                     	;# 
   642  000C                     	;# 
   643  000E                     	;# 
   644  0011                     	;# 
   645  0012                     	;# 
   646  0013                     	;# 
   647  0015                     	;# 
   648  0016                     	;# 
   649  0016                     	;# 
   650  0017                     	;# 
   651  0018                     	;# 
   652  0019                     	;# 
   653  001A                     	;# 
   654  001B                     	;# 
   655  001C                     	;# 
   656  008C                     	;# 
   657  008E                     	;# 
   658  0091                     	;# 
   659  0092                     	;# 
   660  0093                     	;# 
   661  0095                     	;# 
   662  0096                     	;# 
   663  0097                     	;# 
   664  0099                     	;# 
   665  009A                     	;# 
   666  009B                     	;# 
   667  009B                     	;# 
   668  009C                     	;# 
   669  009D                     	;# 
   670  009E                     	;# 
   671  009F                     	;# 
   672  010C                     	;# 
   673  010E                     	;# 
   674  0111                     	;# 
   675  0112                     	;# 
   676  0113                     	;# 
   677  0114                     	;# 
   678  0115                     	;# 
   679  0116                     	;# 
   680  0117                     	;# 
   681  0118                     	;# 
   682  0119                     	;# 
   683  011D                     	;# 
   684  018C                     	;# 
   685  018E                     	;# 
   686  0191                     	;# 
   687  0191                     	;# 
   688  0192                     	;# 
   689  0193                     	;# 
   690  0193                     	;# 
   691  0194                     	;# 
   692  0195                     	;# 
   693  0196                     	;# 
   694  0197                     	;# 
   695  020C                     	;# 
   696  0211                     	;# 
   697  0211                     	;# 
   698  0212                     	;# 
   699  0212                     	;# 
   700  0213                     	;# 
   701  0213                     	;# 
   702  0214                     	;# 
   703  0214                     	;# 
   704  0215                     	;# 
   705  0215                     	;# 
   706  0215                     	;# 
   707  0216                     	;# 
   708  0216                     	;# 
   709  0217                     	;# 
   710  0217                     	;# 
   711  0391                     	;# 
   712  0392                     	;# 
   713  0393                     	;# 
   714  0498                     	;# 
   715  0498                     	;# 
   716  0499                     	;# 
   717  049A                     	;# 
   718  049B                     	;# 
   719  049B                     	;# 
   720  049C                     	;# 
   721  049D                     	;# 
   722  049E                     	;# 
   723  049F                     	;# 
   724  0611                     	;# 
   725  0612                     	;# 
   726  0613                     	;# 
   727  0613                     	;# 
   728  0614                     	;# 
   729  0615                     	;# 
   730  0616                     	;# 
   731  0616                     	;# 
   732  0617                     	;# 
   733  0618                     	;# 
   734  0619                     	;# 
   735  0619                     	;# 
   736  061A                     	;# 
   737  061B                     	;# 
   738  061C                     	;# 
   739  061C                     	;# 
   740  0691                     	;# 
   741  0692                     	;# 
   742  0693                     	;# 
   743  0694                     	;# 
   744  0695                     	;# 
   745  0F0F                     	;# 
   746  0F10                     	;# 
   747  0F11                     	;# 
   748  0F12                     	;# 
   749  0F13                     	;# 
   750  0F14                     	;# 
   751  0F15                     	;# 
   752  0F16                     	;# 
   753  0F17                     	;# 
   754  0F18                     	;# 
   755  0F19                     	;# 
   756  0F1A                     	;# 
   757  0F1B                     	;# 
   758  0F1C                     	;# 
   759  0F1D                     	;# 
   760  0F1E                     	;# 
   761  0F1F                     	;# 
   762  0FE3                     	;# 
   763  0FE4                     	;# 
   764  0FE5                     	;# 
   765  0FE6                     	;# 
   766  0FE7                     	;# 
   767  0FE8                     	;# 
   768  0FE9                     	;# 
   769  0FEA                     	;# 
   770  0FEB                     	;# 
   771  0FED                     	;# 
   772  0FEE                     	;# 
   773  0FEF                     	;# 
   774  0000                     	;# 
   775  0001                     	;# 
   776  0002                     	;# 
   777  0003                     	;# 
   778  0004                     	;# 
   779  0005                     	;# 
   780  0006                     	;# 
   781  0007                     	;# 
   782  0008                     	;# 
   783  0009                     	;# 
   784  000A                     	;# 
   785  000B                     	;# 
   786  000C                     	;# 
   787  000E                     	;# 
   788  0011                     	;# 
   789  0012                     	;# 
   790  0013                     	;# 
   791  0015                     	;# 
   792  0016                     	;# 
   793  0016                     	;# 
   794  0017                     	;# 
   795  0018                     	;# 
   796  0019                     	;# 
   797  001A                     	;# 
   798  001B                     	;# 
   799  001C                     	;# 
   800  008C                     	;# 
   801  008E                     	;# 
   802  0091                     	;# 
   803  0092                     	;# 
   804  0093                     	;# 
   805  0095                     	;# 
   806  0096                     	;# 
   807  0097                     	;# 
   808  0099                     	;# 
   809  009A                     	;# 
   810  009B                     	;# 
   811  009B                     	;# 
   812  009C                     	;# 
   813  009D                     	;# 
   814  009E                     	;# 
   815  009F                     	;# 
   816  010C                     	;# 
   817  010E                     	;# 
   818  0111                     	;# 
   819  0112                     	;# 
   820  0113                     	;# 
   821  0114                     	;# 
   822  0115                     	;# 
   823  0116                     	;# 
   824  0117                     	;# 
   825  0118                     	;# 
   826  0119                     	;# 
   827  011D                     	;# 
   828  018C                     	;# 
   829  018E                     	;# 
   830  0191                     	;# 
   831  0191                     	;# 
   832  0192                     	;# 
   833  0193                     	;# 
   834  0193                     	;# 
   835  0194                     	;# 
   836  0195                     	;# 
   837  0196                     	;# 
   838  0197                     	;# 
   839  020C                     	;# 
   840  0211                     	;# 
   841  0211                     	;# 
   842  0212                     	;# 
   843  0212                     	;# 
   844  0213                     	;# 
   845  0213                     	;# 
   846  0214                     	;# 
   847  0214                     	;# 
   848  0215                     	;# 
   849  0215                     	;# 
   850  0215                     	;# 
   851  0216                     	;# 
   852  0216                     	;# 
   853  0217                     	;# 
   854  0217                     	;# 
   855  0391                     	;# 
   856  0392                     	;# 
   857  0393                     	;# 
   858  0498                     	;# 
   859  0498                     	;# 
   860  0499                     	;# 
   861  049A                     	;# 
   862  049B                     	;# 
   863  049B                     	;# 
   864  049C                     	;# 
   865  049D                     	;# 
   866  049E                     	;# 
   867  049F                     	;# 
   868  0611                     	;# 
   869  0612                     	;# 
   870  0613                     	;# 
   871  0613                     	;# 
   872  0614                     	;# 
   873  0615                     	;# 
   874  0616                     	;# 
   875  0616                     	;# 
   876  0617                     	;# 
   877  0618                     	;# 
   878  0619                     	;# 
   879  0619                     	;# 
   880  061A                     	;# 
   881  061B                     	;# 
   882  061C                     	;# 
   883  061C                     	;# 
   884  0691                     	;# 
   885  0692                     	;# 
   886  0693                     	;# 
   887  0694                     	;# 
   888  0695                     	;# 
   889  0F0F                     	;# 
   890  0F10                     	;# 
   891  0F11                     	;# 
   892  0F12                     	;# 
   893  0F13                     	;# 
   894  0F14                     	;# 
   895  0F15                     	;# 
   896  0F16                     	;# 
   897  0F17                     	;# 
   898  0F18                     	;# 
   899  0F19                     	;# 
   900  0F1A                     	;# 
   901  0F1B                     	;# 
   902  0F1C                     	;# 
   903  0F1D                     	;# 
   904  0F1E                     	;# 
   905  0F1F                     	;# 
   906  0FE3                     	;# 
   907  0FE4                     	;# 
   908  0FE5                     	;# 
   909  0FE6                     	;# 
   910  0FE7                     	;# 
   911  0FE8                     	;# 
   912  0FE9                     	;# 
   913  0FEA                     	;# 
   914  0FEB                     	;# 
   915  0FED                     	;# 
   916  0FEE                     	;# 
   917  0FEF                     	;# 
   918                           
   919                           	psect	nvCOMMON
   920  0070                     __pnvCOMMON:	
   921  0070                     _pwm4_dutyCycle:	
   922  0070                     	ds	2
   923  0072                     _pwm3_dutyCycle:	
   924  0072                     	ds	2
   925  0074                     _pwm2_dutyCycle:	
   926  0074                     	ds	2
   927  0076                     _pwm1_dutyCycle:	
   928  0076                     	ds	2
   929  0097                     _WDTCON	set	151
   930  0099                     _OSCCON	set	153
   931  061A                     _PWM4DCL	set	1562
   932  061B                     _PWM4DCH	set	1563
   933  0617                     _PWM3DCL	set	1559
   934  0618                     _PWM3DCH	set	1560
   935  0614                     _PWM2DCL	set	1556
   936  0615                     _PWM2DCH	set	1557
   937  0611                     _PWM1DCL	set	1553
   938  0612                     _PWM1DCH	set	1554
   939  061C                     _PWM4CON	set	1564
   940  0619                     _PWM3CON	set	1561
   941  0616                     _PWM2CON	set	1558
   942  0613                     _PWM1CON	set	1555
   943                           
   944                           	psect	cinit
   945  000E                     start_initialization:	
   946                           ; #config settings
   947                           
   948  000E                     __initialization:	
   949  000E                     end_of_initialization:	
   950                           ;End of C runtime variable initialization code
   951                           
   952  000E                     __end_of__initialization:	
   953  000E  107E               	bcf	int$flags,0	;clear compiler interrupt flag (level 1)
   954  000F  0020               	movlb	0
   955  0010  28A4               	ljmp	_main	;jump to C main() function
   956                           
   957                           	psect	cstackCOMMON
   958  0078                     __pcstackCOMMON:	
   959  0078                     ?_ConfigureOscillator:	
   960  0078                     ?_InitApp:	
   961                           ; 1 bytes @ 0x0
   962                           
   963  0078                     ?__init_gpio:	
   964                           ; 1 bytes @ 0x0
   965                           
   966  0078                     ?__init_timer2:	
   967                           ; 1 bytes @ 0x0
   968                           
   969  0078                     ?__init_pwm:	
   970                           ; 1 bytes @ 0x0
   971                           
   972  0078                     ?_isr:	
   973                           ; 1 bytes @ 0x0
   974                           
   975  0078                     ??_isr:	
   976                           ; 1 bytes @ 0x0
   977                           
   978  0078                     ?_main:	
   979                           ; 1 bytes @ 0x0
   980                           
   981                           
   982                           ; 1 bytes @ 0x0
   983  0078                     	ds	1
   984  0079                     ??_ConfigureOscillator:	
   985  0079                     ??__init_gpio:	
   986                           ; 1 bytes @ 0x1
   987                           
   988  0079                     ??__init_timer2:	
   989                           ; 1 bytes @ 0x1
   990                           
   991  0079                     ?_pwm1_writeDutyCycle:	
   992                           ; 1 bytes @ 0x1
   993                           
   994  0079                     ?_pwm2_writeDutyCycle:	
   995                           ; 1 bytes @ 0x1
   996                           
   997  0079                     ?_pwm3_writeDutyCycle:	
   998                           ; 1 bytes @ 0x1
   999                           
  1000  0079                     ?_pwm4_writeDutyCycle:	
  1001                           ; 1 bytes @ 0x1
  1002                           
  1003  0079                     pwm1_writeDutyCycle@dutyCycle:	
  1004                           ; 1 bytes @ 0x1
  1005                           
  1006  0079                     pwm2_writeDutyCycle@dutyCycle:	
  1007                           ; 2 bytes @ 0x1
  1008                           
  1009  0079                     pwm3_writeDutyCycle@dutyCycle:	
  1010                           ; 2 bytes @ 0x1
  1011                           
  1012  0079                     pwm4_writeDutyCycle@dutyCycle:	
  1013                           ; 2 bytes @ 0x1
  1014                           
  1015                           
  1016                           ; 2 bytes @ 0x1
  1017  0079                     	ds	2
  1018  007B                     ??_pwm1_writeDutyCycle:	
  1019  007B                     ??_pwm2_writeDutyCycle:	
  1020                           ; 1 bytes @ 0x3
  1021                           
  1022  007B                     ??_pwm3_writeDutyCycle:	
  1023                           ; 1 bytes @ 0x3
  1024                           
  1025  007B                     ??_pwm4_writeDutyCycle:	
  1026                           ; 1 bytes @ 0x3
  1027                           
  1028                           
  1029                           ; 1 bytes @ 0x3
  1030  007B                     	ds	2
  1031  007D                     ??_InitApp:	
  1032  007D                     ??__init_pwm:	
  1033                           ; 1 bytes @ 0x5
  1034                           
  1035  007D                     ??_main:	
  1036                           ; 1 bytes @ 0x5
  1037                           
  1038                           
  1039                           	psect	maintext
  1040  00A4                     __pmaintext:	
  1041                           ; 1 bytes @ 0x5
  1042 ;;
  1043 ;;Main: autosize = 0, tempsize = 0, incstack = 0, save=0
  1044 ;;
  1045 ;; *************** function _main *****************
  1046 ;; Defined at:
  1047 ;;		line 26 in file "main.c"
  1048 ;; Parameters:    Size  Location     Type
  1049 ;;		None
  1050 ;; Auto vars:     Size  Location     Type
  1051 ;;		None
  1052 ;; Return value:  Size  Location     Type
  1053 ;;                  1    wreg      void 
  1054 ;; Registers used:
  1055 ;;		wreg, status,2, status,0, pclath, cstack
  1056 ;; Tracked objects:
  1057 ;;		On entry : B1F/0
  1058 ;;		On exit  : 0/0
  1059 ;;		Unchanged: 0/0
  1060 ;; Data sizes:     COMMON   BANK0   BANK1
  1061 ;;      Params:         0       0       0
  1062 ;;      Locals:         0       0       0
  1063 ;;      Temps:          0       0       0
  1064 ;;      Totals:         0       0       0
  1065 ;;Total ram usage:        0 bytes
  1066 ;; Hardware stack levels required when called:    4
  1067 ;; This function calls:
  1068 ;;		_ConfigureOscillator
  1069 ;;		_InitApp
  1070 ;; This function is called by:
  1071 ;;		Startup code after reset
  1072 ;; This function uses a non-reentrant model
  1073 ;;
  1074                           
  1075                           
  1076                           ;psect for function _main
  1077  00A4                     _main:	
  1078                           
  1079                           ;main.c: 29: ConfigureOscillator();
  1080                           
  1081                           ;incstack = 0
  1082                           ; Regs used in _main: [wreg+status,2+status,0+pclath+cstack]
  1083  00A4  209B               	fcall	_ConfigureOscillator
  1084                           
  1085                           ;main.c: 32: InitApp();
  1086  00A5  20A0               	fcall	_InitApp
  1087  00A6                     l14:	
  1088                           ;main.c: 35: while(1)
  1089                           
  1090                           
  1091                           ;main.c: 36: {
  1092  00A6  28A6               	goto	l14
  1093  00A7                     __end_of_main:	
  1094                           
  1095                           	psect	text1
  1096  00A0                     __ptext1:	
  1097 ;; *************** function _InitApp *****************
  1098 ;; Defined at:
  1099 ;;		line 21 in file "user.c"
  1100 ;; Parameters:    Size  Location     Type
  1101 ;;		None
  1102 ;; Auto vars:     Size  Location     Type
  1103 ;;		None
  1104 ;; Return value:  Size  Location     Type
  1105 ;;                  1    wreg      void 
  1106 ;; Registers used:
  1107 ;;		wreg, status,2, status,0, pclath, cstack
  1108 ;; Tracked objects:
  1109 ;;		On entry : 0/0
  1110 ;;		On exit  : 0/0
  1111 ;;		Unchanged: 0/0
  1112 ;; Data sizes:     COMMON   BANK0   BANK1
  1113 ;;      Params:         0       0       0
  1114 ;;      Locals:         0       0       0
  1115 ;;      Temps:          0       0       0
  1116 ;;      Totals:         0       0       0
  1117 ;;Total ram usage:        0 bytes
  1118 ;; Hardware stack levels used:    1
  1119 ;; Hardware stack levels required when called:    3
  1120 ;; This function calls:
  1121 ;;		__init_gpio
  1122 ;;		__init_pwm
  1123 ;;		__init_timer2
  1124 ;; This function is called by:
  1125 ;;		_main
  1126 ;; This function uses a non-reentrant model
  1127 ;;
  1128                           
  1129                           
  1130                           ;psect for function _InitApp
  1131  00A0                     _InitApp:	
  1132                           
  1133                           ;user.c: 25: _init_gpio();
  1134                           
  1135                           ;incstack = 0
  1136                           ; Regs used in _InitApp: [wreg+status,2+status,0+pclath+cstack]
  1137  00A0  20A8               	fcall	__init_gpio
  1138                           
  1139                           ;user.c: 28: _init_timer2();
  1140  00A1  20A7               	fcall	__init_timer2
  1141                           
  1142                           ;user.c: 29: _init_pwm();
  1143  00A2  2011               	fcall	__init_pwm
  1144  00A3  0008               	return
  1145  00A4                     __end_of_InitApp:	
  1146                           
  1147                           	psect	text2
  1148  00A7                     __ptext2:	
  1149 ;; *************** function __init_timer2 *****************
  1150 ;; Defined at:
  1151 ;;		line 35 in file "user.c"
  1152 ;; Parameters:    Size  Location     Type
  1153 ;;		None
  1154 ;; Auto vars:     Size  Location     Type
  1155 ;;		None
  1156 ;; Return value:  Size  Location     Type
  1157 ;;                  1    wreg      void 
  1158 ;; Registers used:
  1159 ;;		None
  1160 ;; Tracked objects:
  1161 ;;		On entry : 0/0
  1162 ;;		On exit  : 0/0
  1163 ;;		Unchanged: 0/0
  1164 ;; Data sizes:     COMMON   BANK0   BANK1
  1165 ;;      Params:         0       0       0
  1166 ;;      Locals:         0       0       0
  1167 ;;      Temps:          0       0       0
  1168 ;;      Totals:         0       0       0
  1169 ;;Total ram usage:        0 bytes
  1170 ;; Hardware stack levels used:    1
  1171 ;; Hardware stack levels required when called:    1
  1172 ;; This function calls:
  1173 ;;		Nothing
  1174 ;; This function is called by:
  1175 ;;		_InitApp
  1176 ;; This function uses a non-reentrant model
  1177 ;;
  1178                           
  1179                           
  1180                           ;psect for function __init_timer2
  1181  00A7                     __init_timer2:	
  1182                           
  1183                           ;incstack = 0
  1184                           ; Regs used in __init_timer2: []
  1185  00A7  0008               	return
  1186  00A8                     __end_of__init_timer2:	
  1187                           
  1188                           	psect	text3
  1189  0011                     __ptext3:	
  1190 ;; *************** function __init_pwm *****************
  1191 ;; Defined at:
  1192 ;;		line 17 in file "pwm.c"
  1193 ;; Parameters:    Size  Location     Type
  1194 ;;		None
  1195 ;; Auto vars:     Size  Location     Type
  1196 ;;		None
  1197 ;; Return value:  Size  Location     Type
  1198 ;;                  1    wreg      void 
  1199 ;; Registers used:
  1200 ;;		wreg, status,2, status,0, pclath, cstack
  1201 ;; Tracked objects:
  1202 ;;		On entry : 0/0
  1203 ;;		On exit  : 0/0
  1204 ;;		Unchanged: 0/0
  1205 ;; Data sizes:     COMMON   BANK0   BANK1
  1206 ;;      Params:         0       0       0
  1207 ;;      Locals:         0       0       0
  1208 ;;      Temps:          0       0       0
  1209 ;;      Totals:         0       0       0
  1210 ;;Total ram usage:        0 bytes
  1211 ;; Hardware stack levels used:    1
  1212 ;; Hardware stack levels required when called:    2
  1213 ;; This function calls:
  1214 ;;		_pwm1_writeDutyCycle
  1215 ;;		_pwm2_writeDutyCycle
  1216 ;;		_pwm3_writeDutyCycle
  1217 ;;		_pwm4_writeDutyCycle
  1218 ;; This function is called by:
  1219 ;;		_InitApp
  1220 ;; This function uses a non-reentrant model
  1221 ;;
  1222                           
  1223                           
  1224                           ;psect for function __init_pwm
  1225  0011                     __init_pwm:	
  1226                           
  1227                           ;pwm.c: 20: PWM1CON = 0x00;
  1228                           
  1229                           ;incstack = 0
  1230                           ; Regs used in __init_pwm: [wreg+status,2+status,0+pclath+cstack]
  1231  0011  002C               	movlb	12	; select bank12
  1232  0012  0193               	clrf	19	;volatile
  1233                           
  1234                           ;pwm.c: 21: PWM2CON = 0x00;
  1235  0013  0196               	clrf	22	;volatile
  1236                           
  1237                           ;pwm.c: 22: PWM3CON = 0x00;
  1238  0014  0199               	clrf	25	;volatile
  1239                           
  1240                           ;pwm.c: 23: PWM4CON = 0x00;
  1241  0015  019C               	clrf	28	;volatile
  1242                           
  1243                           ;pwm.c: 28: PWM1CON = 0xC0;
  1244  0016  30C0               	movlw	192
  1245  0017  0093               	movwf	19	;volatile
  1246                           
  1247                           ;pwm.c: 29: PWM2CON = 0xC0;
  1248  0018  30C0               	movlw	192
  1249  0019  0096               	movwf	22	;volatile
  1250                           
  1251                           ;pwm.c: 30: PWM3CON = 0xC0;
  1252  001A  30C0               	movlw	192
  1253  001B  0099               	movwf	25	;volatile
  1254                           
  1255                           ;pwm.c: 31: PWM4CON = 0xC0;
  1256  001C  30C0               	movlw	192
  1257  001D  009C               	movwf	28	;volatile
  1258                           
  1259                           ;pwm.c: 33: pwm1_writeDutyCycle(9U);
  1260  001E  3009               	movlw	9
  1261  001F  00F9               	movwf	pwm1_writeDutyCycle@dutyCycle
  1262  0020  3000               	movlw	0
  1263  0021  00FA               	movwf	pwm1_writeDutyCycle@dutyCycle+1
  1264  0022  2081               	fcall	_pwm1_writeDutyCycle
  1265                           
  1266                           ;pwm.c: 34: pwm2_writeDutyCycle(9U);
  1267  0023  3009               	movlw	9
  1268  0024  00F9               	movwf	pwm2_writeDutyCycle@dutyCycle
  1269  0025  3000               	movlw	0
  1270  0026  00FA               	movwf	pwm2_writeDutyCycle@dutyCycle+1
  1271  0027  2067               	fcall	_pwm2_writeDutyCycle
  1272                           
  1273                           ;pwm.c: 35: pwm3_writeDutyCycle(9U);
  1274  0028  3009               	movlw	9
  1275  0029  00F9               	movwf	pwm3_writeDutyCycle@dutyCycle
  1276  002A  3000               	movlw	0
  1277  002B  00FA               	movwf	pwm3_writeDutyCycle@dutyCycle+1
  1278  002C  204D               	fcall	_pwm3_writeDutyCycle
  1279                           
  1280                           ;pwm.c: 36: pwm4_writeDutyCycle(9U);
  1281  002D  3009               	movlw	9
  1282  002E  00F9               	movwf	pwm4_writeDutyCycle@dutyCycle
  1283  002F  3000               	movlw	0
  1284  0030  00FA               	movwf	pwm4_writeDutyCycle@dutyCycle+1
  1285  0031  2033               	fcall	_pwm4_writeDutyCycle
  1286  0032  0008               	return
  1287  0033                     __end_of__init_pwm:	
  1288                           
  1289                           	psect	text4
  1290  0033                     __ptext4:	
  1291 ;; *************** function _pwm4_writeDutyCycle *****************
  1292 ;; Defined at:
  1293 ;;		line 55 in file "pwm.c"
  1294 ;; Parameters:    Size  Location     Type
  1295 ;;  dutyCycle       2    1[COMMON] unsigned int 
  1296 ;; Auto vars:     Size  Location     Type
  1297 ;;		None
  1298 ;; Return value:  Size  Location     Type
  1299 ;;                  1    wreg      void 
  1300 ;; Registers used:
  1301 ;;		wreg, status,2, status,0
  1302 ;; Tracked objects:
  1303 ;;		On entry : 0/0
  1304 ;;		On exit  : 0/0
  1305 ;;		Unchanged: 0/0
  1306 ;; Data sizes:     COMMON   BANK0   BANK1
  1307 ;;      Params:         2       0       0
  1308 ;;      Locals:         0       0       0
  1309 ;;      Temps:          2       0       0
  1310 ;;      Totals:         4       0       0
  1311 ;;Total ram usage:        4 bytes
  1312 ;; Hardware stack levels used:    1
  1313 ;; Hardware stack levels required when called:    1
  1314 ;; This function calls:
  1315 ;;		Nothing
  1316 ;; This function is called by:
  1317 ;;		__init_pwm
  1318 ;;		_incDutyCycle
  1319 ;;		_decDutyCycle
  1320 ;; This function uses a non-reentrant model
  1321 ;;
  1322                           
  1323                           
  1324                           ;psect for function _pwm4_writeDutyCycle
  1325  0033                     _pwm4_writeDutyCycle:	
  1326                           
  1327                           ;pwm.c: 56: PWM4DCH = (dutyCycle & 0x03FC)>>2;
  1328                           
  1329                           ;incstack = 0
  1330                           ; Regs used in _pwm4_writeDutyCycle: [wreg+status,2+status,0]
  1331  0033  087A               	movf	pwm4_writeDutyCycle@dutyCycle+1,w
  1332  0034  00FC               	movwf	??_pwm4_writeDutyCycle+1
  1333  0035  0879               	movf	pwm4_writeDutyCycle@dutyCycle,w
  1334  0036  00FB               	movwf	??_pwm4_writeDutyCycle
  1335  0037  36FC               	lsrf	??_pwm4_writeDutyCycle+1,f
  1336  0038  0CFB               	rrf	??_pwm4_writeDutyCycle,f
  1337  0039  36FC               	lsrf	??_pwm4_writeDutyCycle+1,f
  1338  003A  0CFB               	rrf	??_pwm4_writeDutyCycle,f
  1339  003B  087B               	movf	??_pwm4_writeDutyCycle,w
  1340  003C  002C               	movlb	12	; select bank12
  1341  003D  009B               	movwf	27	;volatile
  1342                           
  1343                           ;pwm.c: 57: PWM4DCL = (dutyCycle & 0x0003)<<6;
  1344  003E  0879               	movf	pwm4_writeDutyCycle@dutyCycle,w
  1345  003F  3903               	andlw	3
  1346  0040  00FB               	movwf	??_pwm4_writeDutyCycle
  1347  0041  3005               	movlw	5
  1348  0042                     u105:	
  1349  0042  35FB               	lslf	??_pwm4_writeDutyCycle,f
  1350  0043  3EFF               	addlw	-1
  1351  0044  1D03               	skipz
  1352  0045  2842               	goto	u105
  1353  0046  357B               	lslf	??_pwm4_writeDutyCycle,w
  1354  0047  009A               	movwf	26	;volatile
  1355                           
  1356                           ;pwm.c: 58: pwm4_dutyCycle = dutyCycle;
  1357  0048  087A               	movf	pwm4_writeDutyCycle@dutyCycle+1,w
  1358  0049  00F1               	movwf	_pwm4_dutyCycle+1	;volatile
  1359  004A  0879               	movf	pwm4_writeDutyCycle@dutyCycle,w
  1360  004B  00F0               	movwf	_pwm4_dutyCycle	;volatile
  1361  004C  0008               	return
  1362  004D                     __end_of_pwm4_writeDutyCycle:	
  1363                           
  1364                           	psect	text5
  1365  004D                     __ptext5:	
  1366 ;; *************** function _pwm3_writeDutyCycle *****************
  1367 ;; Defined at:
  1368 ;;		line 50 in file "pwm.c"
  1369 ;; Parameters:    Size  Location     Type
  1370 ;;  dutyCycle       2    1[COMMON] unsigned int 
  1371 ;; Auto vars:     Size  Location     Type
  1372 ;;		None
  1373 ;; Return value:  Size  Location     Type
  1374 ;;                  1    wreg      void 
  1375 ;; Registers used:
  1376 ;;		wreg, status,2, status,0
  1377 ;; Tracked objects:
  1378 ;;		On entry : 0/0
  1379 ;;		On exit  : 0/0
  1380 ;;		Unchanged: 0/0
  1381 ;; Data sizes:     COMMON   BANK0   BANK1
  1382 ;;      Params:         2       0       0
  1383 ;;      Locals:         0       0       0
  1384 ;;      Temps:          2       0       0
  1385 ;;      Totals:         4       0       0
  1386 ;;Total ram usage:        4 bytes
  1387 ;; Hardware stack levels used:    1
  1388 ;; Hardware stack levels required when called:    1
  1389 ;; This function calls:
  1390 ;;		Nothing
  1391 ;; This function is called by:
  1392 ;;		__init_pwm
  1393 ;;		_incDutyCycle
  1394 ;;		_decDutyCycle
  1395 ;; This function uses a non-reentrant model
  1396 ;;
  1397                           
  1398                           
  1399                           ;psect for function _pwm3_writeDutyCycle
  1400  004D                     _pwm3_writeDutyCycle:	
  1401                           
  1402                           ;pwm.c: 51: PWM3DCH = (dutyCycle & 0x03FC)>>2;
  1403                           
  1404                           ;incstack = 0
  1405                           ; Regs used in _pwm3_writeDutyCycle: [wreg+status,2+status,0]
  1406  004D  087A               	movf	pwm3_writeDutyCycle@dutyCycle+1,w
  1407  004E  00FC               	movwf	??_pwm3_writeDutyCycle+1
  1408  004F  0879               	movf	pwm3_writeDutyCycle@dutyCycle,w
  1409  0050  00FB               	movwf	??_pwm3_writeDutyCycle
  1410  0051  36FC               	lsrf	??_pwm3_writeDutyCycle+1,f
  1411  0052  0CFB               	rrf	??_pwm3_writeDutyCycle,f
  1412  0053  36FC               	lsrf	??_pwm3_writeDutyCycle+1,f
  1413  0054  0CFB               	rrf	??_pwm3_writeDutyCycle,f
  1414  0055  087B               	movf	??_pwm3_writeDutyCycle,w
  1415  0056  002C               	movlb	12	; select bank12
  1416  0057  0098               	movwf	24	;volatile
  1417                           
  1418                           ;pwm.c: 52: PWM3DCL = (dutyCycle & 0x0003)<<6;
  1419  0058  0879               	movf	pwm3_writeDutyCycle@dutyCycle,w
  1420  0059  3903               	andlw	3
  1421  005A  00FB               	movwf	??_pwm3_writeDutyCycle
  1422  005B  3005               	movlw	5
  1423  005C                     u95:	
  1424  005C  35FB               	lslf	??_pwm3_writeDutyCycle,f
  1425  005D  3EFF               	addlw	-1
  1426  005E  1D03               	skipz
  1427  005F  285C               	goto	u95
  1428  0060  357B               	lslf	??_pwm3_writeDutyCycle,w
  1429  0061  0097               	movwf	23	;volatile
  1430                           
  1431                           ;pwm.c: 53: pwm3_dutyCycle = dutyCycle;
  1432  0062  087A               	movf	pwm3_writeDutyCycle@dutyCycle+1,w
  1433  0063  00F3               	movwf	_pwm3_dutyCycle+1	;volatile
  1434  0064  0879               	movf	pwm3_writeDutyCycle@dutyCycle,w
  1435  0065  00F2               	movwf	_pwm3_dutyCycle	;volatile
  1436  0066  0008               	return
  1437  0067                     __end_of_pwm3_writeDutyCycle:	
  1438                           
  1439                           	psect	text6
  1440  0067                     __ptext6:	
  1441 ;; *************** function _pwm2_writeDutyCycle *****************
  1442 ;; Defined at:
  1443 ;;		line 45 in file "pwm.c"
  1444 ;; Parameters:    Size  Location     Type
  1445 ;;  dutyCycle       2    1[COMMON] unsigned int 
  1446 ;; Auto vars:     Size  Location     Type
  1447 ;;		None
  1448 ;; Return value:  Size  Location     Type
  1449 ;;                  1    wreg      void 
  1450 ;; Registers used:
  1451 ;;		wreg, status,2, status,0
  1452 ;; Tracked objects:
  1453 ;;		On entry : 0/0
  1454 ;;		On exit  : 0/0
  1455 ;;		Unchanged: 0/0
  1456 ;; Data sizes:     COMMON   BANK0   BANK1
  1457 ;;      Params:         2       0       0
  1458 ;;      Locals:         0       0       0
  1459 ;;      Temps:          2       0       0
  1460 ;;      Totals:         4       0       0
  1461 ;;Total ram usage:        4 bytes
  1462 ;; Hardware stack levels used:    1
  1463 ;; Hardware stack levels required when called:    1
  1464 ;; This function calls:
  1465 ;;		Nothing
  1466 ;; This function is called by:
  1467 ;;		__init_pwm
  1468 ;;		_incDutyCycle
  1469 ;;		_decDutyCycle
  1470 ;; This function uses a non-reentrant model
  1471 ;;
  1472                           
  1473                           
  1474                           ;psect for function _pwm2_writeDutyCycle
  1475  0067                     _pwm2_writeDutyCycle:	
  1476                           
  1477                           ;pwm.c: 46: PWM2DCH = (dutyCycle & 0x03FC)>>2;
  1478                           
  1479                           ;incstack = 0
  1480                           ; Regs used in _pwm2_writeDutyCycle: [wreg+status,2+status,0]
  1481  0067  087A               	movf	pwm2_writeDutyCycle@dutyCycle+1,w
  1482  0068  00FC               	movwf	??_pwm2_writeDutyCycle+1
  1483  0069  0879               	movf	pwm2_writeDutyCycle@dutyCycle,w
  1484  006A  00FB               	movwf	??_pwm2_writeDutyCycle
  1485  006B  36FC               	lsrf	??_pwm2_writeDutyCycle+1,f
  1486  006C  0CFB               	rrf	??_pwm2_writeDutyCycle,f
  1487  006D  36FC               	lsrf	??_pwm2_writeDutyCycle+1,f
  1488  006E  0CFB               	rrf	??_pwm2_writeDutyCycle,f
  1489  006F  087B               	movf	??_pwm2_writeDutyCycle,w
  1490  0070  002C               	movlb	12	; select bank12
  1491  0071  0095               	movwf	21	;volatile
  1492                           
  1493                           ;pwm.c: 47: PWM2DCL = (dutyCycle & 0x0003)<<6;
  1494  0072  0879               	movf	pwm2_writeDutyCycle@dutyCycle,w
  1495  0073  3903               	andlw	3
  1496  0074  00FB               	movwf	??_pwm2_writeDutyCycle
  1497  0075  3005               	movlw	5
  1498  0076                     u85:	
  1499  0076  35FB               	lslf	??_pwm2_writeDutyCycle,f
  1500  0077  3EFF               	addlw	-1
  1501  0078  1D03               	skipz
  1502  0079  2876               	goto	u85
  1503  007A  357B               	lslf	??_pwm2_writeDutyCycle,w
  1504  007B  0094               	movwf	20	;volatile
  1505                           
  1506                           ;pwm.c: 48: pwm2_dutyCycle = dutyCycle;
  1507  007C  087A               	movf	pwm2_writeDutyCycle@dutyCycle+1,w
  1508  007D  00F5               	movwf	_pwm2_dutyCycle+1	;volatile
  1509  007E  0879               	movf	pwm2_writeDutyCycle@dutyCycle,w
  1510  007F  00F4               	movwf	_pwm2_dutyCycle	;volatile
  1511  0080  0008               	return
  1512  0081                     __end_of_pwm2_writeDutyCycle:	
  1513                           
  1514                           	psect	text7
  1515  0081                     __ptext7:	
  1516 ;; *************** function _pwm1_writeDutyCycle *****************
  1517 ;; Defined at:
  1518 ;;		line 40 in file "pwm.c"
  1519 ;; Parameters:    Size  Location     Type
  1520 ;;  dutyCycle       2    1[COMMON] unsigned int 
  1521 ;; Auto vars:     Size  Location     Type
  1522 ;;		None
  1523 ;; Return value:  Size  Location     Type
  1524 ;;                  1    wreg      void 
  1525 ;; Registers used:
  1526 ;;		wreg, status,2, status,0
  1527 ;; Tracked objects:
  1528 ;;		On entry : 0/0
  1529 ;;		On exit  : 0/0
  1530 ;;		Unchanged: 0/0
  1531 ;; Data sizes:     COMMON   BANK0   BANK1
  1532 ;;      Params:         2       0       0
  1533 ;;      Locals:         0       0       0
  1534 ;;      Temps:          2       0       0
  1535 ;;      Totals:         4       0       0
  1536 ;;Total ram usage:        4 bytes
  1537 ;; Hardware stack levels used:    1
  1538 ;; Hardware stack levels required when called:    1
  1539 ;; This function calls:
  1540 ;;		Nothing
  1541 ;; This function is called by:
  1542 ;;		__init_pwm
  1543 ;;		_incDutyCycle
  1544 ;;		_decDutyCycle
  1545 ;; This function uses a non-reentrant model
  1546 ;;
  1547                           
  1548                           
  1549                           ;psect for function _pwm1_writeDutyCycle
  1550  0081                     _pwm1_writeDutyCycle:	
  1551                           
  1552                           ;pwm.c: 41: PWM1DCH = (dutyCycle & 0x03FC)>>2;
  1553                           
  1554                           ;incstack = 0
  1555                           ; Regs used in _pwm1_writeDutyCycle: [wreg+status,2+status,0]
  1556  0081  087A               	movf	pwm1_writeDutyCycle@dutyCycle+1,w
  1557  0082  00FC               	movwf	??_pwm1_writeDutyCycle+1
  1558  0083  0879               	movf	pwm1_writeDutyCycle@dutyCycle,w
  1559  0084  00FB               	movwf	??_pwm1_writeDutyCycle
  1560  0085  36FC               	lsrf	??_pwm1_writeDutyCycle+1,f
  1561  0086  0CFB               	rrf	??_pwm1_writeDutyCycle,f
  1562  0087  36FC               	lsrf	??_pwm1_writeDutyCycle+1,f
  1563  0088  0CFB               	rrf	??_pwm1_writeDutyCycle,f
  1564  0089  087B               	movf	??_pwm1_writeDutyCycle,w
  1565  008A  002C               	movlb	12	; select bank12
  1566  008B  0092               	movwf	18	;volatile
  1567                           
  1568                           ;pwm.c: 42: PWM1DCL = (dutyCycle & 0x0003)<<6;
  1569  008C  0879               	movf	pwm1_writeDutyCycle@dutyCycle,w
  1570  008D  3903               	andlw	3
  1571  008E  00FB               	movwf	??_pwm1_writeDutyCycle
  1572  008F  3005               	movlw	5
  1573  0090                     u75:	
  1574  0090  35FB               	lslf	??_pwm1_writeDutyCycle,f
  1575  0091  3EFF               	addlw	-1
  1576  0092  1D03               	skipz
  1577  0093  2890               	goto	u75
  1578  0094  357B               	lslf	??_pwm1_writeDutyCycle,w
  1579  0095  0091               	movwf	17	;volatile
  1580                           
  1581                           ;pwm.c: 43: pwm1_dutyCycle = dutyCycle;
  1582  0096  087A               	movf	pwm1_writeDutyCycle@dutyCycle+1,w
  1583  0097  00F7               	movwf	_pwm1_dutyCycle+1	;volatile
  1584  0098  0879               	movf	pwm1_writeDutyCycle@dutyCycle,w
  1585  0099  00F6               	movwf	_pwm1_dutyCycle	;volatile
  1586  009A  0008               	return
  1587  009B                     __end_of_pwm1_writeDutyCycle:	
  1588                           
  1589                           	psect	text8
  1590  00A8                     __ptext8:	
  1591 ;; *************** function __init_gpio *****************
  1592 ;; Defined at:
  1593 ;;		line 39 in file "user.c"
  1594 ;; Parameters:    Size  Location     Type
  1595 ;;		None
  1596 ;; Auto vars:     Size  Location     Type
  1597 ;;		None
  1598 ;; Return value:  Size  Location     Type
  1599 ;;                  1    wreg      void 
  1600 ;; Registers used:
  1601 ;;		None
  1602 ;; Tracked objects:
  1603 ;;		On entry : 0/0
  1604 ;;		On exit  : 0/0
  1605 ;;		Unchanged: 0/0
  1606 ;; Data sizes:     COMMON   BANK0   BANK1
  1607 ;;      Params:         0       0       0
  1608 ;;      Locals:         0       0       0
  1609 ;;      Temps:          0       0       0
  1610 ;;      Totals:         0       0       0
  1611 ;;Total ram usage:        0 bytes
  1612 ;; Hardware stack levels used:    1
  1613 ;; Hardware stack levels required when called:    1
  1614 ;; This function calls:
  1615 ;;		Nothing
  1616 ;; This function is called by:
  1617 ;;		_InitApp
  1618 ;; This function uses a non-reentrant model
  1619 ;;
  1620                           
  1621                           
  1622                           ;psect for function __init_gpio
  1623  00A8                     __init_gpio:	
  1624                           
  1625                           ;incstack = 0
  1626                           ; Regs used in __init_gpio: []
  1627  00A8  0008               	return
  1628  00A9                     __end_of__init_gpio:	
  1629                           
  1630                           	psect	text9
  1631  009B                     __ptext9:	
  1632 ;; *************** function _ConfigureOscillator *****************
  1633 ;; Defined at:
  1634 ;;		line 17 in file "system.c"
  1635 ;; Parameters:    Size  Location     Type
  1636 ;;		None
  1637 ;; Auto vars:     Size  Location     Type
  1638 ;;		None
  1639 ;; Return value:  Size  Location     Type
  1640 ;;                  1    wreg      void 
  1641 ;; Registers used:
  1642 ;;		wreg, status,2
  1643 ;; Tracked objects:
  1644 ;;		On entry : 0/0
  1645 ;;		On exit  : 0/0
  1646 ;;		Unchanged: 0/0
  1647 ;; Data sizes:     COMMON   BANK0   BANK1
  1648 ;;      Params:         0       0       0
  1649 ;;      Locals:         0       0       0
  1650 ;;      Temps:          0       0       0
  1651 ;;      Totals:         0       0       0
  1652 ;;Total ram usage:        0 bytes
  1653 ;; Hardware stack levels used:    1
  1654 ;; Hardware stack levels required when called:    1
  1655 ;; This function calls:
  1656 ;;		Nothing
  1657 ;; This function is called by:
  1658 ;;		_main
  1659 ;; This function uses a non-reentrant model
  1660 ;;
  1661                           
  1662                           
  1663                           ;psect for function _ConfigureOscillator
  1664  009B                     _ConfigureOscillator:	
  1665                           
  1666                           ;system.c: 20: OSCCON = 0x3B;
  1667                           
  1668                           ;incstack = 0
  1669                           ; Regs used in _ConfigureOscillator: [wreg+status,2]
  1670  009B  303B               	movlw	59
  1671  009C  0021               	movlb	1	; select bank1
  1672  009D  0099               	movwf	25	;volatile
  1673                           
  1674                           ;system.c: 23: WDTCON = 0x00;
  1675  009E  0197               	clrf	23	;volatile
  1676  009F  0008               	return
  1677  00A0                     __end_of_ConfigureOscillator:	
  1678                           
  1679                           	psect	intentry
  1680  0004                     __pintentry:	
  1681 ;; *************** function _isr *****************
  1682 ;; Defined at:
  1683 ;;		line 23 in file "interrupts.c"
  1684 ;; Parameters:    Size  Location     Type
  1685 ;;		None
  1686 ;; Auto vars:     Size  Location     Type
  1687 ;;		None
  1688 ;; Return value:  Size  Location     Type
  1689 ;;                  1    wreg      void 
  1690 ;; Registers used:
  1691 ;;		None
  1692 ;; Tracked objects:
  1693 ;;		On entry : 0/0
  1694 ;;		On exit  : 0/0
  1695 ;;		Unchanged: 0/0
  1696 ;; Data sizes:     COMMON   BANK0   BANK1
  1697 ;;      Params:         0       0       0
  1698 ;;      Locals:         0       0       0
  1699 ;;      Temps:          1       0       0
  1700 ;;      Totals:         1       0       0
  1701 ;;Total ram usage:        1 bytes
  1702 ;; Hardware stack levels used:    1
  1703 ;; This function calls:
  1704 ;;		Nothing
  1705 ;; This function is called by:
  1706 ;;		Interrupt level 1
  1707 ;; This function uses a non-reentrant model
  1708 ;;
  1709                           
  1710  0004                     _isr:	
  1711                           
  1712                           ;incstack = 0
  1713  0004  147E               	bsf	126,0	;set compiler interrupt flag (level 1)
  1714                           
  1715                           ; Regs used in _isr: []
  1716  0005  3180               	pagesel	$
  1717  0006  0020               	movlb	0	; select bank0
  1718  0007  087F               	movf	127,w
  1719  0008  00F8               	movwf	??_isr
  1720  0009  0878               	movf	??_isr,w
  1721  000A  00FF               	movwf	127
  1722  000B  107E               	bcf	126,0	;clear compiler interrupt flag (level 1)
  1723  000C  0009               	retfie
  1724  000D                     __end_of_isr:	
  1725  007E                     btemp	set	126	;btemp
  1726  007E                     int$flags	set	126
  1727  007E                     wtemp0	set	126


Data Sizes:
    Strings     0
    Constant    0
    Data        0
    BSS         0
    Persistent  8
    Stack       0

Auto Spaces:
    Space          Size  Autos    Used
    COMMON           14      5      13
    BANK0            80      0       0
    BANK1            32      0       0

Pointer List with Targets:

    None.

Critical Paths under _main in COMMON

    __init_pwm->_pwm1_writeDutyCycle
    __init_pwm->_pwm2_writeDutyCycle
    __init_pwm->_pwm3_writeDutyCycle
    __init_pwm->_pwm4_writeDutyCycle

Critical Paths under _isr in COMMON

    None.

Critical Paths under _main in BANK0

    None.

Critical Paths under _isr in BANK0

    None.

Critical Paths under _main in BANK1

    None.

Critical Paths under _isr in BANK1

    None.

Call Graph Tables:

 ---------------------------------------------------------------------------------
 (Depth) Function   	        Calls       Base Space   Used Autos Params    Refs
 ---------------------------------------------------------------------------------
 (0) _main                                                 0     0      0     780
                _ConfigureOscillator
                            _InitApp
 ---------------------------------------------------------------------------------
 (1) _InitApp                                              0     0      0     780
                         __init_gpio
                          __init_pwm
                       __init_timer2
 ---------------------------------------------------------------------------------
 (2) __init_timer2                                         0     0      0       0
 ---------------------------------------------------------------------------------
 (2) __init_pwm                                            0     0      0     780
                _pwm1_writeDutyCycle
                _pwm2_writeDutyCycle
                _pwm3_writeDutyCycle
                _pwm4_writeDutyCycle
 ---------------------------------------------------------------------------------
 (3) _pwm4_writeDutyCycle                                  4     2      2     195
                                              1 COMMON     4     2      2
 ---------------------------------------------------------------------------------
 (3) _pwm3_writeDutyCycle                                  4     2      2     195
                                              1 COMMON     4     2      2
 ---------------------------------------------------------------------------------
 (3) _pwm2_writeDutyCycle                                  4     2      2     195
                                              1 COMMON     4     2      2
 ---------------------------------------------------------------------------------
 (3) _pwm1_writeDutyCycle                                  4     2      2     195
                                              1 COMMON     4     2      2
 ---------------------------------------------------------------------------------
 (2) __init_gpio                                           0     0      0       0
 ---------------------------------------------------------------------------------
 (1) _ConfigureOscillator                                  0     0      0       0
 ---------------------------------------------------------------------------------
 Estimated maximum stack depth 3
 ---------------------------------------------------------------------------------
 (Depth) Function   	        Calls       Base Space   Used Autos Params    Refs
 ---------------------------------------------------------------------------------
 (4) _isr                                                  1     1      0       0
                                              0 COMMON     1     1      0
 ---------------------------------------------------------------------------------
 Estimated maximum stack depth 4
 ---------------------------------------------------------------------------------

 Call Graph Graphs:

 _main (ROOT)
   _ConfigureOscillator
   _InitApp
     __init_gpio
     __init_pwm
       _pwm1_writeDutyCycle
       _pwm2_writeDutyCycle
       _pwm3_writeDutyCycle
       _pwm4_writeDutyCycle
     __init_timer2

 _isr (ROOT)

 Address spaces:
Name               Size   Autos  Total    Cost      Usage
BIGRAM              70      0       0       0        0.0%
NULL                 0      0       0       0        0.0%
CODE                 0      0       0       0        0.0%
BITCOMMON            E      0       0       1        0.0%
BITSFR0              0      0       0       1        0.0%
SFR0                 0      0       0       1        0.0%
COMMON               E      5       D       2       92.9%
BITSFR1              0      0       0       2        0.0%
SFR1                 0      0       0       2        0.0%
BITSFR2              0      0       0       3        0.0%
SFR2                 0      0       0       3        0.0%
STACK                0      0       0       3        0.0%
BITSFR3              0      0       0       4        0.0%
SFR3                 0      0       0       4        0.0%
ABS                  0      0       D       4        0.0%
BITBANK0            50      0       0       5        0.0%
BITSFR4              0      0       0       5        0.0%
SFR4                 0      0       0       5        0.0%
BANK0               50      0       0       6        0.0%
BITSFR5              0      0       0       6        0.0%
SFR5                 0      0       0       6        0.0%
BITBANK1            20      0       0       7        0.0%
BITSFR6              0      0       0       7        0.0%
SFR6                 0      0       0       7        0.0%
BANK1               20      0       0       8        0.0%
BITSFR7              0      0       0       8        0.0%
SFR7                 0      0       0       8        0.0%
BITSFR8              0      0       0       9        0.0%
SFR8                 0      0       0       9        0.0%
DATA                 0      0       D       9        0.0%
BITSFR9              0      0       0      10        0.0%
SFR9                 0      0       0      10        0.0%
BITSFR10             0      0       0      11        0.0%
SFR10                0      0       0      11        0.0%
BITSFR11             0      0       0      12        0.0%
SFR11                0      0       0      12        0.0%
BITSFR12             0      0       0      13        0.0%
SFR12                0      0       0      13        0.0%
BITSFR13             0      0       0      14        0.0%
SFR13                0      0       0      14        0.0%
BITSFR14             0      0       0      15        0.0%
SFR14                0      0       0      15        0.0%
BITSFR15             0      0       0      16        0.0%
SFR15                0      0       0      16        0.0%
BITSFR16             0      0       0      17        0.0%
SFR16                0      0       0      17        0.0%
BITSFR17             0      0       0      18        0.0%
SFR17                0      0       0      18        0.0%
BITSFR18             0      0       0      19        0.0%
SFR18                0      0       0      19        0.0%
BITSFR19             0      0       0      20        0.0%
SFR19                0      0       0      20        0.0%
BITSFR20             0      0       0      21        0.0%
SFR20                0      0       0      21        0.0%
BITSFR21             0      0       0      22        0.0%
SFR21                0      0       0      22        0.0%
BITSFR22             0      0       0      23        0.0%
SFR22                0      0       0      23        0.0%
BITSFR23             0      0       0      24        0.0%
SFR23                0      0       0      24        0.0%
BITSFR24             0      0       0      25        0.0%
SFR24                0      0       0      25        0.0%
BITSFR25             0      0       0      26        0.0%
SFR25                0      0       0      26        0.0%
BITSFR26             0      0       0      27        0.0%
SFR26                0      0       0      27        0.0%
BITSFR27             0      0       0      28        0.0%
SFR27                0      0       0      28        0.0%
BITSFR28             0      0       0      29        0.0%
SFR28                0      0       0      29        0.0%
BITSFR29             0      0       0      30        0.0%
SFR29                0      0       0      30        0.0%
BITSFR30             0      0       0      31        0.0%
SFR30                0      0       0      31        0.0%
BITSFR31             0      0       0      32        0.0%
SFR31                0      0       0      32        0.0%


Microchip Technology PIC Macro Assembler V1.44 build -154322312 
Symbol Table                                                                                   Thu Nov 02 15:53:52 2017

                          l14 00A6                            u75 0090                            u85 0076  
                          u95 005C                           u105 0042                           _isr 0004  
        __end_of__init_timer2 00A8                          ?_isr 0078  pwm1_writeDutyCycle@dutyCycle 0079  
                        _main 00A4                          btemp 007E                          start 000D  
       ??_pwm3_writeDutyCycle 007B               __end_of_InitApp 00A4                         ??_isr 0078  
                       ?_main 0078           _ConfigureOscillator 009B  pwm4_writeDutyCycle@dutyCycle 0079  
                       wtemp0 007E          ?_ConfigureOscillator 0078               __initialization 000E  
                __end_of_main 00A7                        ??_main 007D                _pwm1_dutyCycle 0076  
                      _OSCCON 0099                        _WDTCON 0097  __size_of_pwm2_writeDutyCycle 001A  
                   ??_InitApp 007D         ??_ConfigureOscillator 0079                _pwm2_dutyCycle 0074  
       __size_of__init_timer2 0001                _pwm3_dutyCycle 0072                _pwm4_dutyCycle 0070  
     __end_of__initialization 000E                  __init_timer2 00A7                __pcstackCOMMON 0078  
__size_of_pwm4_writeDutyCycle 001A            __size_of__init_pwm 0022   __end_of_pwm1_writeDutyCycle 009B  
                  __init_gpio 00A8                    __pnvCOMMON 0070                    __pmaintext 00A4  
                  __pintentry 0004                       _PWM1DCH 0612                       _PWM1DCL 0611  
                     _PWM2DCH 0615                       _PWM2DCL 0614                       _PWM3DCH 0618  
                     _PWM3DCL 0617                       _PWM4DCH 061B                       _PWM1CON 0613  
                     _PWM4DCL 061A                       _PWM2CON 0616                       _PWM3CON 0619  
                     _PWM4CON 061C             __end_of__init_pwm 0033   __end_of_pwm3_writeDutyCycle 0067  
                     _InitApp 00A0  pwm3_writeDutyCycle@dutyCycle 0079                       __ptext1 00A0  
                     __ptext2 00A7                       __ptext3 0011                       __ptext4 0033  
                     __ptext5 004D                       __ptext6 0067                       __ptext7 0081  
                     __ptext8 00A8                       __ptext9 009B           _pwm2_writeDutyCycle 0067  
                __size_of_isr 0009          end_of_initialization 000E                   ?__init_gpio 0078  
        ?_pwm2_writeDutyCycle 0079           _pwm4_writeDutyCycle 0033   __end_of_ConfigureOscillator 00A0  
       ??_pwm2_writeDutyCycle 007B          ?_pwm4_writeDutyCycle 0079           __size_of__init_gpio 0001  
         start_initialization 000E                   __end_of_isr 000D         ??_pwm4_writeDutyCycle 007B  
                   ___latbits 0000  __size_of_pwm1_writeDutyCycle 001A                      ?_InitApp 0078  
                   __init_pwm 0011                  ??__init_gpio 0079                    ?__init_pwm 0078  
pwm2_writeDutyCycle@dutyCycle 0079  __size_of_pwm3_writeDutyCycle 001A            __end_of__init_gpio 00A9  
               ?__init_timer2 0078              __size_of_InitApp 0004   __end_of_pwm2_writeDutyCycle 0081  
               __size_of_main 0003                   ??__init_pwm 007D                ??__init_timer2 0079  
__size_of_ConfigureOscillator 0005                      int$flags 007E           _pwm1_writeDutyCycle 0081  
                    intlevel1 0000          ?_pwm1_writeDutyCycle 0079   __end_of_pwm4_writeDutyCycle 004D  
         _pwm3_writeDutyCycle 004D         ??_pwm1_writeDutyCycle 007B          ?_pwm3_writeDutyCycle 0079  
